target datalayout = "e-m:e-p270:32:32-p271:32:32-p272:64:64-i64:64-i128:128-f80:128-n8:16:32:64-S128"
target triple = "x86_64-pc-linux-gnu"

%struct._object = type { %union.anon, ptr }
%union.anon = type { i64 }
%struct.anon = type { i32, i32 }

@PyExc_ValueError = external global ptr, align 8
@.str.56 = private unnamed_addr constant [38 x i8] c"Firing event %d with no exception set\00", align 1

; Function Attrs: alwaysinline nounwind uwtable
define internal i32 @_Py_IsImmortal(ptr noundef %0) #5 {
  %2 = alloca ptr, align 8
  store ptr %0, ptr %2, align 8, !tbaa !53
  %3 = load ptr, ptr %2, align 8, !tbaa !53
  %4 = getelementptr inbounds nuw %struct._object, ptr %3, i32 0, i32 0
  %5 = getelementptr inbounds nuw %struct.anon, ptr %4, i32 0, i32 0
  %6 = load i32, ptr %5, align 8, !tbaa !11
  %7 = icmp slt i32 %6, 0
  %8 = zext i1 %7 to i32
  ret i32 %8
}

; Function Attrs: alwaysinline nounwind uwtable
define internal void @Py_DECREF(ptr noundef %0) #5 {
  %2 = alloca ptr, align 8
  store ptr %0, ptr %2, align 8, !tbaa !53
  %3 = load ptr, ptr %2, align 8, !tbaa !53
  %4 = call i32 @_Py_IsImmortal(ptr noundef %3)
  %5 = icmp ne i32 %4, 0
  br i1 %5, label %6, label %7

6:                                                ; preds = %1
  br label %16

7:                                                ; preds = %1
  %8 = load ptr, ptr %2, align 8, !tbaa !53
  %9 = getelementptr inbounds nuw %struct._object, ptr %8, i32 0, i32 0
  %10 = getelementptr inbounds nuw %struct.anon, ptr %9, i32 0, i32 0
  %11 = load i32, ptr %10, align 8, !tbaa !11
  %12 = add i32 %11, -1
  store i32 %12, ptr %10, align 8, !tbaa !11
  %13 = icmp eq i32 %12, 0
  br i1 %13, label %14, label %16

14:                                               ; preds = %7
  %15 = load ptr, ptr %2, align 8, !tbaa !53
  call void @_Py_Dealloc(ptr noundef %15)
  br label %16

16:                                               ; preds = %6, %14, %7
  ret void
}

; Function Attrs: inlinehint nounwind uwtable
define internal void @Py_XDECREF(ptr noundef %0) #2 {
  %2 = alloca ptr, align 8
  store ptr %0, ptr %2, align 8, !tbaa !53
  %3 = load ptr, ptr %2, align 8, !tbaa !53
  %4 = icmp ne ptr %3, null
  br i1 %4, label %5, label %7

5:                                                ; preds = %1
  %6 = load ptr, ptr %2, align 8, !tbaa !53
  call void @Py_DECREF(ptr noundef %6)
  br label %7

7:                                                ; preds = %5, %1
  ret void
}

; Function Attrs: inlinehint nounwind uwtable
define internal i32 @exception_event_teardown(i32 noundef %0, ptr noundef %1) #2 {
  %3 = alloca i32, align 4
  %4 = alloca ptr, align 8
  store i32 %0, ptr %3, align 4, !tbaa !9
  store ptr %1, ptr %4, align 8, !tbaa !53
  %5 = load i32, ptr %3, align 4, !tbaa !9
  %6 = icmp eq i32 %5, 0
  br i1 %6, label %7, label %9

7:                                                ; preds = %2
  %8 = load ptr, ptr %4, align 8, !tbaa !53
  call void @PyErr_SetRaisedException(ptr noundef %8)
  br label %11

9:                                                ; preds = %2
  %10 = load ptr, ptr %4, align 8, !tbaa !53
  call void @Py_XDECREF(ptr noundef %10)
  br label %11

11:                                               ; preds = %9, %7
  %12 = load i32, ptr %3, align 4, !tbaa !9
  ret i32 %12
}

; Function Attrs: inlinehint nounwind uwtable
define internal i32 @exception_event_setup(ptr noundef %0, i32 noundef %1) #2 {
  %3 = alloca i32, align 4
  %4 = alloca ptr, align 8
  %5 = alloca i32, align 4
  store ptr %0, ptr %4, align 8, !tbaa !44
  store i32 %1, ptr %5, align 4, !tbaa !9
  %6 = call ptr @PyErr_GetRaisedException()
  %7 = load ptr, ptr %4, align 8, !tbaa !44
  store ptr %6, ptr %7, align 8, !tbaa !53
  %8 = load ptr, ptr %4, align 8, !tbaa !44
  %9 = load ptr, ptr %8, align 8, !tbaa !53
  %10 = icmp eq ptr %9, null
  br i1 %10, label %11, label %15

11:                                               ; preds = %2
  %12 = load ptr, ptr @PyExc_ValueError, align 8, !tbaa !53
  %13 = load i32, ptr %5, align 4, !tbaa !9
  %14 = call ptr (ptr, ptr, ...) @PyErr_Format(ptr noundef %12, ptr noundef @.str.56, i32 noundef %13)
  store i32 -1, ptr %3, align 4
  br label %16

15:                                               ; preds = %2
  store i32 0, ptr %3, align 4
  br label %16

16:                                               ; preds = %15, %11
  %17 = load i32, ptr %3, align 4
  ret i32 %17
}

; Function Attrs: nounwind uwtable
define dso_local i32 @_PyMonitoring_FireReraiseEvent(ptr noundef %0, ptr noundef %1, i32 noundef %2) #0 {
  %4 = alloca i32, align 4
  %5 = alloca ptr, align 8
  %6 = alloca ptr, align 8
  %7 = alloca i32, align 4
  %8 = alloca i32, align 4
  %9 = alloca ptr, align 8
  %10 = alloca i32, align 4
  %11 = alloca [4 x ptr], align 16
  %12 = alloca i32, align 4
  store ptr %0, ptr %5, align 8, !tbaa !179
  store ptr %1, ptr %6, align 8, !tbaa !53
  store i32 %2, ptr %7, align 4, !tbaa !9
  call void @llvm.lifetime.start.p0(i64 4, ptr %8) #8
  store i32 15, ptr %8, align 4, !tbaa !9
  call void @llvm.lifetime.start.p0(i64 8, ptr %9) #8
  %13 = load i32, ptr %8, align 4, !tbaa !9
  %14 = call i32 @exception_event_setup(ptr noundef %9, i32 noundef %13)
  %15 = icmp slt i32 %14, 0
  br i1 %15, label %16, label %17

16:                                               ; preds = %3
  store i32 -1, ptr %4, align 4
  store i32 1, ptr %10, align 4
  br label %29

17:                                               ; preds = %3
  call void @llvm.lifetime.start.p0(i64 32, ptr %11) #8
  call void @llvm.memset.p0.i64(ptr align 16 %11, i8 0, i64 32, i1 false)
  %18 = getelementptr inbounds ptr, ptr %11, i64 3
  %19 = load ptr, ptr %9, align 8, !tbaa !53
  store ptr %19, ptr %18, align 8, !tbaa !53
  call void @llvm.lifetime.start.p0(i64 4, ptr %12) #8
  %20 = load ptr, ptr %5, align 8, !tbaa !179
  %21 = load ptr, ptr %6, align 8, !tbaa !53
  %22 = load i32, ptr %7, align 4, !tbaa !9
  %23 = getelementptr inbounds [4 x ptr], ptr %11, i64 0, i64 0
  %24 = load i32, ptr %8, align 4, !tbaa !9
  %25 = call i32 @capi_call_instrumentation(ptr noundef %20, ptr noundef %21, i32 noundef %22, ptr noundef %23, i64 noundef 3, i32 noundef %24)
  store i32 %25, ptr %12, align 4, !tbaa !9
  %26 = load i32, ptr %12, align 4, !tbaa !9
  %27 = load ptr, ptr %9, align 8, !tbaa !53
  %28 = call i32 @exception_event_teardown(i32 noundef %26, ptr noundef %27)
  store i32 %28, ptr %4, align 4
  store i32 1, ptr %10, align 4
  call void @llvm.lifetime.end.p0(i64 4, ptr %12) #8
  call void @llvm.lifetime.end.p0(i64 32, ptr %11) #8
  br label %29

29:                                               ; preds = %17, %16
  call void @llvm.lifetime.end.p0(i64 8, ptr %9) #8
  call void @llvm.lifetime.end.p0(i64 4, ptr %8) #8
  %30 = load i32, ptr %4, align 4
  ret i32 %30
}