; Function Attrs: nounwind uwtable
define dso_local range(i32 -1, 1) i32 @_PyMonitoring_FireReraiseEvent(ptr noundef captures(none) %0, ptr noundef %1, i32 noundef %2) local_unnamed_addr #2 {
  %4 = alloca [4 x ptr], align 16
  %5 = tail call ptr @PyErr_GetRaisedException() #11
  %6 = icmp eq ptr %5, null
  br i1 %6, label %exception_event_setup.exit.thread, label %exception_event_setup.exit

exception_event_setup.exit.thread:                ; preds = %3
  %7 = load ptr, ptr @PyExc_ValueError, align 8, !tbaa !46
  %8 = tail call ptr (ptr, ptr, ...) @PyErr_Format(ptr noundef %7, ptr noundef nonnull @.str.56, i32 noundef 15) #11
  br label %19

exception_event_setup.exit:                       ; preds = %3
  call void @llvm.lifetime.start.p0(i64 32, ptr nonnull %4) #11
  call void @llvm.memset.p0.i64(ptr noundef nonnull align 16 dereferenceable(32) %4, i8 0, i64 32, i1 false)
  %9 = getelementptr inbounds nuw i8, ptr %4, i64 24
  store ptr %5, ptr %9, align 8, !tbaa !46
  %10 = call fastcc i32 @capi_call_instrumentation(ptr noundef %0, ptr noundef %1, i32 noundef %2, ptr noundef %4, i64 noundef 3, i32 noundef 15)
  %11 = icmp eq i32 %10, 0
  br i1 %11, label %12, label %13

12:                                               ; preds = %exception_event_setup.exit
  call void @PyErr_SetRaisedException(ptr noundef nonnull %5) #11
  br label %exception_event_teardown.exit

13:                                               ; preds = %exception_event_setup.exit
  %14 = load i32, ptr %5, align 8, !tbaa !33
  %.not.i.i.i = icmp sgt i32 %14, -1
  br i1 %.not.i.i.i, label %15, label %exception_event_teardown.exit

15:                                               ; preds = %13
  %16 = add nsw i32 %14, -1
  store i32 %16, ptr %5, align 8, !tbaa !33
  %17 = icmp eq i32 %16, 0
  br i1 %17, label %18, label %exception_event_teardown.exit

18:                                               ; preds = %15
  call void @_Py_Dealloc(ptr noundef nonnull %5) #11
  br label %exception_event_teardown.exit

exception_event_teardown.exit:                    ; preds = %12, %13, %15, %18
  call void @llvm.lifetime.end.p0(i64 32, ptr nonnull %4) #11
  br label %19

19:                                               ; preds = %exception_event_setup.exit.thread, %exception_event_teardown.exit
  %.0 = phi i32 [ %10, %exception_event_teardown.exit ], [ -1, %exception_event_setup.exit.thread ]
  ret i32 %.0
}